; ModuleID = '14/938.c'
source_filename = "14/938.c"
target datalayout = "e-m:e-p270:32:32-p271:32:32-p272:64:64-i64:64-f80:128-n8:16:32:64-S128"
target triple = "x86_64-pc-linux-gnu"

%struct.info = type { [10 x i8], i32, i32, %struct.info* }

@n = common dso_local global i32 0, align 4
@all = common dso_local global i32 0, align 4
@.str = private unnamed_addr constant [9 x i8] c"%s %d %d\00", align 1
@.str.1 = private unnamed_addr constant [3 x i8] c"%d\00", align 1
@.str.2 = private unnamed_addr constant [1 x i8] zeroinitializer, align 1
@.str.3 = private unnamed_addr constant [19 x i8] c"%s %d\0A%s %d\0A%s %d\0A\00", align 1

; Function Attrs: noinline nounwind uwtable
define dso_local %struct.info* @setup() #0 {
  %1 = alloca %struct.info*, align 8
  %2 = alloca %struct.info*, align 8
  %3 = alloca %struct.info*, align 8
  store i32 0, i32* @n, align 4
  br label %4

4:                                                ; preds = %29, %0
  %5 = load i32, i32* @n, align 4
  %6 = load i32, i32* @all, align 4
  %7 = icmp slt i32 %5, %6
  br i1 %7, label %8, label %31

8:                                                ; preds = %4
  %9 = call noalias i8* @malloc(i64 32) #3
  %10 = bitcast i8* %9 to %struct.info*
  store %struct.info* %10, %struct.info** %2, align 8
  %11 = load %struct.info*, %struct.info** %2, align 8
  %12 = getelementptr inbounds %struct.info, %struct.info* %11, i32 0, i32 0
  %13 = getelementptr inbounds [10 x i8], [10 x i8]* %12, i64 0, i64 0
  %14 = load %struct.info*, %struct.info** %2, align 8
  %15 = getelementptr inbounds %struct.info, %struct.info* %14, i32 0, i32 1
  %16 = load %struct.info*, %struct.info** %2, align 8
  %17 = getelementptr inbounds %struct.info, %struct.info* %16, i32 0, i32 2
  %18 = call i32 (i8*, ...) @__isoc99_scanf(i8* getelementptr inbounds ([9 x i8], [9 x i8]* @.str, i64 0, i64 0), i8* %13, i32* %15, i32* %17)
  %19 = load i32, i32* @n, align 4
  %20 = add nsw i32 %19, 1
  store i32 %20, i32* @n, align 4
  %21 = load i32, i32* @n, align 4
  %22 = icmp eq i32 %21, 1
  br i1 %22, label %23, label %25

23:                                               ; preds = %8
  %24 = load %struct.info*, %struct.info** %2, align 8
  store %struct.info* %24, %struct.info** %1, align 8
  br label %29

25:                                               ; preds = %8
  %26 = load %struct.info*, %struct.info** %2, align 8
  %27 = load %struct.info*, %struct.info** %3, align 8
  %28 = getelementptr inbounds %struct.info, %struct.info* %27, i32 0, i32 3
  store %struct.info* %26, %struct.info** %28, align 8
  br label %29

29:                                               ; preds = %25, %23
  %30 = load %struct.info*, %struct.info** %2, align 8
  store %struct.info* %30, %struct.info** %3, align 8
  br label %4

31:                                               ; preds = %4
  %32 = load %struct.info*, %struct.info** %3, align 8
  %33 = getelementptr inbounds %struct.info, %struct.info* %32, i32 0, i32 3
  store %struct.info* null, %struct.info** %33, align 8
  %34 = load %struct.info*, %struct.info** %1, align 8
  ret %struct.info* %34
}

; Function Attrs: nounwind
declare dso_local noalias i8* @malloc(i64) #1

declare dso_local i32 @__isoc99_scanf(i8*, ...) #2

; Function Attrs: noinline nounwind uwtable
define dso_local void @main() #0 {
  %1 = alloca %struct.info*, align 8
  %2 = alloca i32, align 4
  %3 = alloca i32, align 4
  %4 = alloca i32, align 4
  %5 = alloca i32, align 4
  %6 = alloca [10 x i8], align 1
  %7 = alloca [10 x i8], align 1
  %8 = alloca [10 x i8], align 1
  store i32 0, i32* %3, align 4
  store i32 0, i32* %4, align 4
  store i32 0, i32* %5, align 4
  %9 = call i32 (i8*, ...) @__isoc99_scanf(i8* getelementptr inbounds ([3 x i8], [3 x i8]* @.str.1, i64 0, i64 0), i32* @all)
  %10 = call %struct.info* @setup()
  store %struct.info* %10, %struct.info** %1, align 8
  br label %11

11:                                               ; preds = %68, %0
  %12 = load i32, i32* %3, align 4
  %13 = icmp sgt i32 100, %12
  br i1 %13, label %14, label %34

14:                                               ; preds = %11
  %15 = load i32, i32* %4, align 4
  store i32 %15, i32* %5, align 4
  %16 = load i32, i32* %3, align 4
  store i32 %16, i32* %4, align 4
  store i32 100, i32* %3, align 4
  %17 = getelementptr inbounds [10 x i8], [10 x i8]* %8, i64 0, i64 0
  %18 = call i8* @strcpy(i8* %17, i8* getelementptr inbounds ([1 x i8], [1 x i8]* @.str.2, i64 0, i64 0)) #3
  %19 = getelementptr inbounds [10 x i8], [10 x i8]* %8, i64 0, i64 0
  %20 = getelementptr inbounds [10 x i8], [10 x i8]* %7, i64 0, i64 0
  %21 = call i8* @strcat(i8* %19, i8* %20) #3
  %22 = getelementptr inbounds [10 x i8], [10 x i8]* %7, i64 0, i64 0
  %23 = call i8* @strcpy(i8* %22, i8* getelementptr inbounds ([1 x i8], [1 x i8]* @.str.2, i64 0, i64 0)) #3
  %24 = getelementptr inbounds [10 x i8], [10 x i8]* %7, i64 0, i64 0
  %25 = getelementptr inbounds [10 x i8], [10 x i8]* %6, i64 0, i64 0
  %26 = call i8* @strcat(i8* %24, i8* %25) #3
  %27 = getelementptr inbounds [10 x i8], [10 x i8]* %6, i64 0, i64 0
  %28 = call i8* @strcpy(i8* %27, i8* getelementptr inbounds ([1 x i8], [1 x i8]* @.str.2, i64 0, i64 0)) #3
  %29 = getelementptr inbounds [10 x i8], [10 x i8]* %6, i64 0, i64 0
  %30 = load %struct.info*, %struct.info** %1, align 8
  %31 = getelementptr inbounds %struct.info, %struct.info* %30, i32 0, i32 0
  %32 = getelementptr inbounds [10 x i8], [10 x i8]* %31, i64 0, i64 0
  %33 = call i8* @strcat(i8* %29, i8* %32) #3
  br label %64

34:                                               ; preds = %11
  %35 = load i32, i32* %4, align 4
  %36 = icmp sgt i32 100, %35
  br i1 %36, label %37, label %51

37:                                               ; preds = %34
  %38 = load i32, i32* %4, align 4
  store i32 %38, i32* %5, align 4
  store i32 100, i32* %4, align 4
  %39 = getelementptr inbounds [10 x i8], [10 x i8]* %8, i64 0, i64 0
  %40 = call i8* @strcpy(i8* %39, i8* getelementptr inbounds ([1 x i8], [1 x i8]* @.str.2, i64 0, i64 0)) #3
  %41 = getelementptr inbounds [10 x i8], [10 x i8]* %8, i64 0, i64 0
  %42 = getelementptr inbounds [10 x i8], [10 x i8]* %7, i64 0, i64 0
  %43 = call i8* @strcat(i8* %41, i8* %42) #3
  %44 = getelementptr inbounds [10 x i8], [10 x i8]* %7, i64 0, i64 0
  %45 = call i8* @strcpy(i8* %44, i8* getelementptr inbounds ([1 x i8], [1 x i8]* @.str.2, i64 0, i64 0)) #3
  %46 = getelementptr inbounds [10 x i8], [10 x i8]* %7, i64 0, i64 0
  %47 = load %struct.info*, %struct.info** %1, align 8
  %48 = getelementptr inbounds %struct.info, %struct.info* %47, i32 0, i32 0
  %49 = getelementptr inbounds [10 x i8], [10 x i8]* %48, i64 0, i64 0
  %50 = call i8* @strcat(i8* %46, i8* %49) #3
  br label %63

51:                                               ; preds = %34
  %52 = load i32, i32* %5, align 4
  %53 = icmp sgt i32 100, %52
  br i1 %53, label %54, label %62

54:                                               ; preds = %51
  store i32 100, i32* %5, align 4
  %55 = getelementptr inbounds [10 x i8], [10 x i8]* %8, i64 0, i64 0
  %56 = call i8* @strcpy(i8* %55, i8* getelementptr inbounds ([1 x i8], [1 x i8]* @.str.2, i64 0, i64 0)) #3
  %57 = getelementptr inbounds [10 x i8], [10 x i8]* %8, i64 0, i64 0
  %58 = load %struct.info*, %struct.info** %1, align 8
  %59 = getelementptr inbounds %struct.info, %struct.info* %58, i32 0, i32 0
  %60 = getelementptr inbounds [10 x i8], [10 x i8]* %59, i64 0, i64 0
  %61 = call i8* @strcat(i8* %57, i8* %60) #3
  br label %62

62:                                               ; preds = %54, %51
  br label %63

63:                                               ; preds = %62, %37
  br label %64

64:                                               ; preds = %63, %14
  %65 = load %struct.info*, %struct.info** %1, align 8
  %66 = getelementptr inbounds %struct.info, %struct.info* %65, i32 0, i32 3
  %67 = load %struct.info*, %struct.info** %66, align 8
  store %struct.info* %67, %struct.info** %1, align 8
  br label %68

68:                                               ; preds = %64
  %69 = load %struct.info*, %struct.info** %1, align 8
  %70 = icmp ne %struct.info* %69, null
  br i1 %70, label %11, label %71

71:                                               ; preds = %68
  %72 = getelementptr inbounds [10 x i8], [10 x i8]* %6, i64 0, i64 0
  %73 = load i32, i32* %3, align 4
  %74 = getelementptr inbounds [10 x i8], [10 x i8]* %7, i64 0, i64 0
  %75 = load i32, i32* %4, align 4
  %76 = getelementptr inbounds [10 x i8], [10 x i8]* %8, i64 0, i64 0
  %77 = load i32, i32* %5, align 4
  %78 = call i32 (i8*, ...) @printf(i8* getelementptr inbounds ([19 x i8], [19 x i8]* @.str.3, i64 0, i64 0), i8* %72, i32 %73, i8* %74, i32 %75, i8* %76, i32 %77)
  ret void
}

; Function Attrs: nounwind
declare dso_local i8* @strcpy(i8*, i8*) #1

; Function Attrs: nounwind
declare dso_local i8* @strcat(i8*, i8*) #1

declare dso_local i32 @printf(i8*, ...) #2


!llvm.module.flags = !{!0}
!llvm.ident = !{!1}

!0 = !{i32 1, !"wchar_size", i32 4}
!1 = !{!"clang version 10.0.0-4ubuntu1 "}
